target datalayout = "e-m:e-p270:32:32-p271:32:32-p272:64:64-i64:64-i128:128-f80:128-n8:16:32:64-S128"
target triple = "x86_64-unknown-linux-gnu"

%"struct.folly::unsafe_default_initialized_cv" = type { i8 }
%"class.proxygen::WorkerThread" = type { ptr, i8, %"class.std::thread", %"class.std::mutex", ptr, %"class.std::unique_ptr" }
%"class.std::thread" = type { %"class.std::thread::id" }
%"class.std::thread::id" = type { i64 }
%"class.std::mutex" = type { %"class.std::__mutex_base" }
%"class.std::__mutex_base" = type { %union.pthread_mutex_t }
%union.pthread_mutex_t = type { %struct.__pthread_mutex_s }
%struct.__pthread_mutex_s = type { i32, i32, i32, i32, i32, i16, i16, %struct.__pthread_internal_list }
%struct.__pthread_internal_list = type { ptr, ptr }
%"class.std::unique_ptr" = type { %"struct.std::__uniq_ptr_data" }
%"struct.std::__uniq_ptr_data" = type { %"class.std::__uniq_ptr_impl" }
%"class.std::__uniq_ptr_impl" = type { %"class.std::tuple" }
%"class.std::tuple" = type { %"struct.std::_Tuple_impl" }
%"struct.std::_Tuple_impl" = type { %"struct.std::_Head_base.1" }
%"struct.std::_Head_base.1" = type { ptr }
%"class.folly::Function" = type { %"union.folly::detail::function::Data", ptr, ptr }
%"union.folly::detail::function::Data" = type { ptr, [40 x i8] }
%class.anon.85 = type { ptr }

@_ZN5folly26unsafe_default_initializedE = linkonce_odr constant %"struct.folly::unsafe_default_initialized_cv" undef, comdat, align 1

; Function Attrs: mustprogress nounwind uwtable
define linkonce_odr noundef nonnull align 8 dereferenceable(8) ptr @_ZNSt10_Head_baseILm0EPN5folly9EventBaseELb0EE7_M_headERKS3_(ptr noundef nonnull align 8 dereferenceable(8) %__b) #1 comdat align 2 {
entry:
  %__b.addr = alloca ptr, align 8
  store ptr %__b, ptr %__b.addr, align 8
  %0 = load ptr, ptr %__b.addr, align 8
  %_M_head_impl = getelementptr inbounds %"struct.std::_Head_base.1", ptr %0, i32 0, i32 0
  ret ptr %_M_head_impl
}

; Function Attrs: mustprogress nounwind uwtable
define linkonce_odr noundef nonnull align 8 dereferenceable(8) ptr @_ZNSt11_Tuple_implILm0EJPN5folly9EventBaseESt14default_deleteIS1_EEE7_M_headERKS5_(ptr noundef nonnull align 8 dereferenceable(8) %__t) #1 comdat align 2 {
entry:
  %__t.addr = alloca ptr, align 8
  store ptr %__t, ptr %__t.addr, align 8
  %0 = load ptr, ptr %__t.addr, align 8
  %call = call noundef nonnull align 8 dereferenceable(8) ptr @_ZNSt10_Head_baseILm0EPN5folly9EventBaseELb0EE7_M_headERKS3_(ptr noundef nonnull align 8 dereferenceable(8) %0) #14
  ret ptr %call
}

; Function Attrs: mustprogress nounwind uwtable
define linkonce_odr noundef nonnull align 8 dereferenceable(8) ptr @_ZSt12__get_helperILm0EPN5folly9EventBaseEJSt14default_deleteIS1_EEERKT0_RKSt11_Tuple_implIXT_EJS5_DpT1_EE(ptr noundef nonnull align 8 dereferenceable(8) %__t) #1 comdat {
entry:
  %__t.addr = alloca ptr, align 8
  store ptr %__t, ptr %__t.addr, align 8
  %0 = load ptr, ptr %__t.addr, align 8
  %call = call noundef nonnull align 8 dereferenceable(8) ptr @_ZNSt11_Tuple_implILm0EJPN5folly9EventBaseESt14default_deleteIS1_EEE7_M_headERKS5_(ptr noundef nonnull align 8 dereferenceable(8) %0) #14
  ret ptr %call
}

; Function Attrs: mustprogress nounwind uwtable
define linkonce_odr noundef nonnull align 8 dereferenceable(8) ptr @_ZSt3getILm0EJPN5folly9EventBaseESt14default_deleteIS1_EEERKNSt13tuple_elementIXT_ESt5tupleIJDpT0_EEE4typeERKS9_(ptr noundef nonnull align 8 dereferenceable(8) %__t) #1 comdat {
entry:
  %__t.addr = alloca ptr, align 8
  store ptr %__t, ptr %__t.addr, align 8
  %0 = load ptr, ptr %__t.addr, align 8
  %call = call noundef nonnull align 8 dereferenceable(8) ptr @_ZSt12__get_helperILm0EPN5folly9EventBaseEJSt14default_deleteIS1_EEERKT0_RKSt11_Tuple_implIXT_EJS5_DpT1_EE(ptr noundef nonnull align 8 dereferenceable(8) %0) #14
  ret ptr %call
}

; Function Attrs: mustprogress nounwind uwtable
define linkonce_odr noundef ptr @_ZNKSt15__uniq_ptr_implIN5folly9EventBaseESt14default_deleteIS1_EE6_M_ptrEv(ptr noundef nonnull align 8 dereferenceable(8) %this) #1 comdat align 2 {
entry:
  %this.addr = alloca ptr, align 8
  store ptr %this, ptr %this.addr, align 8
  %this1 = load ptr, ptr %this.addr, align 8
  %_M_t = getelementptr inbounds %"class.std::__uniq_ptr_impl", ptr %this1, i32 0, i32 0
  %call = call noundef nonnull align 8 dereferenceable(8) ptr @_ZSt3getILm0EJPN5folly9EventBaseESt14default_deleteIS1_EEERKNSt13tuple_elementIXT_ESt5tupleIJDpT0_EEE4typeERKS9_(ptr noundef nonnull align 8 dereferenceable(8) %_M_t) #14
  %0 = load ptr, ptr %call, align 8
  ret ptr %0
}

; Function Attrs: noreturn nounwind uwtable
define linkonce_odr hidden void @__clang_call_terminate(ptr noundef %0) #4 comdat {
  %2 = call ptr @__cxa_begin_catch(ptr %0) #14
  call void @_ZSt9terminatev() #17
  unreachable
}

; Function Attrs: mustprogress nounwind uwtable
define linkonce_odr noundef i64 @_ZNK5folly8FunctionIFvvEE4execENS_6detail8function2OpEPNS4_4DataES7_(ptr noundef nonnull align 16 dereferenceable(64) %this, i32 noundef %o, ptr noundef %src, ptr noundef %dst) #1 comdat align 2 {
entry:
  %retval = alloca i64, align 8
  %this.addr = alloca ptr, align 8
  %o.addr = alloca i32, align 4
  %src.addr = alloca ptr, align 8
  %dst.addr = alloca ptr, align 8
  store ptr %this, ptr %this.addr, align 8
  store i32 %o, ptr %o.addr, align 4
  store ptr %src, ptr %src.addr, align 8
  store ptr %dst, ptr %dst.addr, align 8
  %this1 = load ptr, ptr %this.addr, align 8
  %exec_ = getelementptr inbounds %"class.folly::Function", ptr %this1, i32 0, i32 2
  %0 = load ptr, ptr %exec_, align 8
  %tobool = icmp ne ptr %0, null
  br i1 %tobool, label %if.end, label %if.then

if.then:                                          ; preds = %entry
  store i64 0, ptr %retval, align 8
  br label %return

if.end:                                           ; preds = %entry
  %exec_2 = getelementptr inbounds %"class.folly::Function", ptr %this1, i32 0, i32 2
  %1 = load ptr, ptr %exec_2, align 8
  %2 = load i32, ptr %o.addr, align 4
  %3 = load ptr, ptr %src.addr, align 8
  %4 = load ptr, ptr %dst.addr, align 8
  %call = call noundef i64 %1(i32 noundef %2, ptr noundef %3, ptr noundef %4) #14
  store i64 %call, ptr %retval, align 8
  br label %return

return:                                           ; preds = %if.end, %if.then
  %5 = load i64, ptr %retval, align 8
  ret i64 %5
}

; Function Attrs: mustprogress nounwind uwtable
define linkonce_odr noundef ptr @_ZNKSt10unique_ptrIN5folly9EventBaseESt14default_deleteIS1_EE3getEv(ptr noundef nonnull align 8 dereferenceable(8) %this) #1 comdat align 2 {
entry:
  %this.addr = alloca ptr, align 8
  store ptr %this, ptr %this.addr, align 8
  %this1 = load ptr, ptr %this.addr, align 8
  %_M_t = getelementptr inbounds %"class.std::unique_ptr", ptr %this1, i32 0, i32 0
  %call = call noundef ptr @_ZNKSt15__uniq_ptr_implIN5folly9EventBaseESt14default_deleteIS1_EE6_M_ptrEv(ptr noundef nonnull align 8 dereferenceable(8) %_M_t) #14
  ret ptr %call
}

; Function Attrs: mustprogress nounwind uwtable
define linkonce_odr void @_ZN5folly8FunctionIFvvEED2Ev(ptr noundef nonnull align 16 dereferenceable(64) %this) unnamed_addr #1 comdat align 2 personality ptr @__gxx_personality_v0 {
entry:
  %this.addr = alloca ptr, align 8
  store ptr %this, ptr %this.addr, align 8
  %this1 = load ptr, ptr %this.addr, align 8
  %data_ = getelementptr inbounds %"class.folly::Function", ptr %this1, i32 0, i32 0
  %call = invoke noundef i64 @_ZNK5folly8FunctionIFvvEE4execENS_6detail8function2OpEPNS4_4DataES7_(ptr noundef nonnull align 16 dereferenceable(64) %this1, i32 noundef 1, ptr noundef %data_, ptr noundef null)
          to label %invoke.cont unwind label %terminate.lpad

invoke.cont:                                      ; preds = %entry
  ret void

terminate.lpad:                                   ; preds = %entry
  %0 = landingpad { ptr, i32 }
          catch ptr null
  %1 = extractvalue { ptr, i32 } %0, 0
  call void @__clang_call_terminate(ptr %1) #17
  unreachable
}

; Function Attrs: mustprogress nounwind uwtable
define internal void @"_ZN5folly8FunctionIFvvEEC2IZN8proxygen12WorkerThread9forceStopEvE3$_0vvLb1EEET_"(ptr noundef nonnull align 16 dereferenceable(64) %this, ptr %fun.coerce) unnamed_addr #1 align 2 {
entry:
  %this.addr.i = alloca ptr, align 8
  %fun = alloca %class.anon.85, align 8
  %this.addr = alloca ptr, align 8
  %coerce.dive = getelementptr inbounds %class.anon.85, ptr %fun, i32 0, i32 0
  store ptr %fun.coerce, ptr %coerce.dive, align 8
  store ptr %this, ptr %this.addr, align 8
  %this1 = load ptr, ptr %this.addr, align 8
  %data_ = getelementptr inbounds %"class.folly::Function", ptr %this1, i32 0, i32 0
  store ptr @_ZN5folly26unsafe_default_initializedE, ptr %this.addr.i, align 8
  store ptr null, ptr %data_, align 16
  %call_ = getelementptr inbounds %"class.folly::Function", ptr %this1, i32 0, i32 1
  store ptr @_ZN5folly6detail8function14FunctionTraitsIFvvEE10uninitCallERNS1_4DataE, ptr %call_, align 16
  %exec_ = getelementptr inbounds %"class.folly::Function", ptr %this1, i32 0, i32 2
  store ptr null, ptr %exec_, align 8
  %data_2 = getelementptr inbounds %"class.folly::Function", ptr %this1, i32 0, i32 0
  call void @llvm.memcpy.p0.p0.i64(ptr align 16 %data_2, ptr align 8 %fun, i64 8, i1 false)
  %call_3 = getelementptr inbounds %"class.folly::Function", ptr %this1, i32 0, i32 1
  store ptr @"_ZN5folly6detail8function14FunctionTraitsIFvvEE9callSmallIZN8proxygen12WorkerThread9forceStopEvE3$_0EEvRNS1_4DataE", ptr %call_3, align 16
  %exec_4 = getelementptr inbounds %"class.folly::Function", ptr %this1, i32 0, i32 2
  store ptr @_ZN5folly6detail8function20DispatchSmallTrivial5exec_ILm16EEEmNS1_2OpEPNS1_4DataES6_, ptr %exec_4, align 8
  ret void
}

; Function Attrs: mustprogress nounwind uwtable
define linkonce_odr noundef ptr @_ZNKSt10unique_ptrIN5folly9EventBaseESt14default_deleteIS1_EEptEv(ptr noundef nonnull align 8 dereferenceable(8) %this) #1 comdat align 2 {
entry:
  %this.addr = alloca ptr, align 8
  store ptr %this, ptr %this.addr, align 8
  %this1 = load ptr, ptr %this.addr, align 8
  %call = call noundef ptr @_ZNKSt10unique_ptrIN5folly9EventBaseESt14default_deleteIS1_EE3getEv(ptr noundef nonnull align 8 dereferenceable(8) %this1) #14
  ret ptr %call
}

; Function Attrs: mustprogress nounwind uwtable
define void @_ZN8proxygen12WorkerThread9forceStopEv(ptr noundef nonnull align 8 dereferenceable(80) %this) #1 align 2 {
entry:
  %this.addr = alloca ptr, align 8
  %agg.tmp = alloca %"class.folly::Function", align 16
  %agg.tmp2 = alloca %class.anon.85, align 8
  store ptr %this, ptr %this.addr, align 8
  %this1 = load ptr, ptr %this.addr, align 8
  %eventBase_ = getelementptr inbounds %"class.proxygen::WorkerThread", ptr %this1, i32 0, i32 5
  %call = call noundef ptr @_ZNKSt10unique_ptrIN5folly9EventBaseESt14default_deleteIS1_EEptEv(ptr noundef nonnull align 8 dereferenceable(8) %eventBase_) #14
  %0 = getelementptr inbounds %class.anon.85, ptr %agg.tmp2, i32 0, i32 0
  store ptr %this1, ptr %0, align 8
  %coerce.dive = getelementptr inbounds %class.anon.85, ptr %agg.tmp2, i32 0, i32 0
  %1 = load ptr, ptr %coerce.dive, align 8
  call void @"_ZN5folly8FunctionIFvvEEC2IZN8proxygen12WorkerThread9forceStopEvE3$_0vvLb1EEET_"(ptr noundef nonnull align 16 dereferenceable(64) %agg.tmp, ptr %1) #14
  call void @_ZN5folly9EventBase20runInEventBaseThreadENS_8FunctionIFvvEEE(ptr noundef nonnull align 16 dereferenceable(568) %call, ptr noundef %agg.tmp) #14
  call void @_ZN5folly8FunctionIFvvEED2Ev(ptr noundef nonnull align 16 dereferenceable(64) %agg.tmp) #14
  ret void
}